target datalayout = "e-m:e-p270:32:32-p271:32:32-p272:64:64-i64:64-i128:128-f80:128-n8:16:32:64-S128"
target triple = "x86_64-pc-linux-gnu"

%struct.GDBUserState = type { i32, ptr, i32, i8, [16 x i64], i8, i32, [2 x i32], i32, i32, [128 x i8], i64 }

@gdbserver_user_state = internal global %struct.GDBUserState zeroinitializer, align 8

; Function Attrs: nounwind sspstrong uwtable
define dso_local void @gdb_put_buffer(ptr noundef %0, i32 noundef %1) #0 {
  %3 = alloca ptr, align 8
  %4 = alloca i32, align 4
  %5 = alloca i32, align 4
  %6 = alloca i32, align 4
  store ptr %0, ptr %3, align 8
  store i32 %1, ptr %4, align 4
  call void @llvm.lifetime.start.p0(i64 4, ptr %5) #14
  store i32 0, ptr %5, align 4, !annotation !4
  br label %7

7:                                                ; preds = %33, %2
  %8 = load i32, ptr %4, align 4
  %9 = icmp sgt i32 %8, 0
  br i1 %9, label %10, label %34

10:                                               ; preds = %7
  %11 = load i32, ptr @gdbserver_user_state, align 8
  %12 = load ptr, ptr %3, align 8
  %13 = load i32, ptr %4, align 4
  %14 = sext i32 %13 to i64
  %15 = call i64 @send(i32 noundef %11, ptr noundef %12, i64 noundef %14, i32 noundef 0)
  %16 = trunc i64 %15 to i32
  store i32 %16, ptr %5, align 4
  %17 = load i32, ptr %5, align 4
  %18 = icmp slt i32 %17, 0
  br i1 %18, label %19, label %25

19:                                               ; preds = %10
  %20 = call ptr @__errno_location() #15
  %21 = load i32, ptr %20, align 4
  %22 = icmp ne i32 %21, 4
  br i1 %22, label %23, label %24

23:                                               ; preds = %19
  store i32 1, ptr %6, align 4
  br label %35

24:                                               ; preds = %19
  br label %33

25:                                               ; preds = %10
  %26 = load i32, ptr %5, align 4
  %27 = load ptr, ptr %3, align 8
  %28 = sext i32 %26 to i64
  %29 = getelementptr inbounds i8, ptr %27, i64 %28
  store ptr %29, ptr %3, align 8
  %30 = load i32, ptr %5, align 4
  %31 = load i32, ptr %4, align 4
  %32 = sub i32 %31, %30
  store i32 %32, ptr %4, align 4
  br label %33

33:                                               ; preds = %25, %24
  br label %7, !llvm.loop !5

34:                                               ; preds = %7
  store i32 0, ptr %6, align 4
  br label %35

35:                                               ; preds = %34, %23
  call void @llvm.lifetime.end.p0(i64 4, ptr %5) #14
  %36 = load i32, ptr %6, align 4
  switch i32 %36, label %38 [
    i32 0, label %37
    i32 1, label %37
  ]

37:                                               ; preds = %35, %35
  ret void

38:                                               ; preds = %35
  unreachable
}