; Function Attrs: nounwind sspstrong uwtable
define dso_local void @gdb_put_buffer(ptr noundef %0, i32 noundef %1) local_unnamed_addr #0 {
  %3 = icmp sgt i32 %1, 0
  br i1 %3, label %.lr.ph, label %._crit_edge

.lr.ph:                                           ; preds = %2, %16
  %.011 = phi i32 [ %.1, %16 ], [ %1, %2 ]
  %.0710 = phi ptr [ %.18, %16 ], [ %0, %2 ]
  %4 = load i32, ptr @gdbserver_user_state, align 8
  %5 = zext nneg i32 %.011 to i64
  %6 = tail call i64 @send(i32 noundef %4, ptr noundef %.0710, i64 noundef %5, i32 noundef 0) #16
  %7 = trunc i64 %6 to i32
  %8 = icmp slt i32 %7, 0
  br i1 %8, label %9, label %12

9:                                                ; preds = %.lr.ph
  %10 = tail call ptr @__errno_location() #17
  %11 = load i32, ptr %10, align 4
  %.not = icmp eq i32 %11, 4
  br i1 %.not, label %16, label %._crit_edge

12:                                               ; preds = %.lr.ph
  %13 = and i64 %6, 2147483647
  %14 = getelementptr inbounds nuw i8, ptr %.0710, i64 %13
  %15 = sub nsw i32 %.011, %7
  br label %16

16:                                               ; preds = %9, %12
  %.18 = phi ptr [ %.0710, %9 ], [ %14, %12 ]
  %.1 = phi i32 [ %.011, %9 ], [ %15, %12 ]
  %17 = icmp sgt i32 %.1, 0
  br i1 %17, label %.lr.ph, label %._crit_edge, !llvm.loop !5

._crit_edge:                                      ; preds = %9, %16, %2
  ret void
}